; Function Attrs: nofree norecurse nosync nounwind memory(read, inaccessiblemem: none) uwtable
define dso_local noundef zeroext i1 @Curl_conn_is_multiplex(ptr noundef readonly %0, i32 noundef %1) local_unnamed_addr #7 {
  %.not = icmp eq ptr %0, null
  br i1 %.not, label %._crit_edge, label %3

3:                                                ; preds = %2
  %4 = getelementptr inbounds nuw i8, ptr %0, i64 608
  %5 = sext i32 %1 to i64
  %6 = getelementptr inbounds [2 x ptr], ptr %4, i64 0, i64 %5
  %7 = load ptr, ptr %6, align 8, !tbaa !51
  %.not1014 = icmp eq ptr %7, null
  br i1 %.not1014, label %._crit_edge, label %.lr.ph

.lr.ph:                                           ; preds = %3, %12
  %.015 = phi ptr [ %14, %12 ], [ %7, %3 ]
  %8 = load ptr, ptr %.015, align 8, !tbaa !15
  %9 = getelementptr inbounds nuw i8, ptr %8, i64 8
  %10 = load i32, ptr %9, align 8, !tbaa !134
  %11 = and i32 %10, 7
  %or.cond21.not.not = icmp eq i32 %11, 0
  br i1 %or.cond21.not.not, label %12, label %._crit_edge.loopexit

12:                                               ; preds = %.lr.ph
  %13 = getelementptr inbounds nuw i8, ptr %.015, i64 8
  %14 = load ptr, ptr %13, align 8, !tbaa !8
  %.not10 = icmp eq ptr %14, null
  br i1 %.not10, label %._crit_edge.loopexit, label %.lr.ph, !llvm.loop !136

._crit_edge.loopexit:                             ; preds = %12, %.lr.ph
  %15 = and i32 %10, 4
  %.not11.not.le = icmp ne i32 %15, 0
  br label %._crit_edge

._crit_edge:                                      ; preds = %._crit_edge.loopexit, %2, %3
  %.08 = phi i1 [ false, %3 ], [ false, %2 ], [ %.not11.not.le, %._crit_edge.loopexit ]
  ret i1 %.08
}